; Function Attrs: nounwind uwtable
define noalias nonnull ptr @l_Lake_Hash_ofNat___boxed(ptr noundef %0) local_unnamed_addr #0 {
  %2 = ptrtoint ptr %0 to i64
  %3 = and i64 %2, 1
  %.not.i.i = icmp eq i64 %3, 0
  br i1 %.not.i.i, label %5, label %l_Lake_Hash_ofNat.exit.thread

l_Lake_Hash_ofNat.exit.thread:                    ; preds = %1
  %4 = lshr i64 %2, 1
  br label %lean_dec.exit

5:                                                ; preds = %1
  %6 = tail call i64 @lean_uint64_of_big_nat(ptr noundef %0) #4
  %7 = load i32, ptr %0, align 4, !tbaa !4
  %8 = icmp sgt i32 %7, 1
  br i1 %8, label %9, label %11, !prof !13

9:                                                ; preds = %5
  %10 = add nsw i32 %7, -1
  store i32 %10, ptr %0, align 4, !tbaa !4
  br label %lean_dec.exit

11:                                               ; preds = %5
  %.not.i = icmp eq i32 %7, 0
  br i1 %.not.i, label %lean_dec.exit, label %12

12:                                               ; preds = %11
  tail call void @lean_dec_ref_cold(ptr noundef nonnull %0) #4
  br label %lean_dec.exit

lean_dec.exit:                                    ; preds = %12, %11, %9, %l_Lake_Hash_ofNat.exit.thread
  %13 = phi i64 [ %4, %l_Lake_Hash_ofNat.exit.thread ], [ %6, %9 ], [ %6, %11 ], [ %6, %12 ]
  tail call void @lean_inc_heartbeat() #4
  %14 = tail call noalias ptr @mi_malloc_small(i64 noundef 16) #4
  %15 = icmp eq ptr %14, null
  br i1 %15, label %16, label %lean_box_uint64.exit

16:                                               ; preds = %lean_dec.exit
  tail call void @lean_internal_panic_out_of_memory() #5
  unreachable

lean_box_uint64.exit:                             ; preds = %lean_dec.exit
  %17 = getelementptr inbounds nuw i8, ptr %14, i64 4
  store i32 1, ptr %14, align 4, !tbaa !4
  store i32 16, ptr %17, align 4
  %18 = getelementptr inbounds nuw i8, ptr %14, i64 8
  store i64 %13, ptr %18, align 8, !tbaa !15
  ret ptr %14
}